; Function Attrs: mustprogress uwtable
define hidden noundef nonnull align 8 dereferenceable(8) ptr @_ZNK2pb4card7displayERSo(ptr noundef nonnull readonly align 8 captures(address) dereferenceable(64) %0, ptr noundef nonnull align 8 dereferenceable(8) %1) unnamed_addr #8 align 2 {
  %3 = getelementptr inbounds nuw i8, ptr %0, i64 32
  %4 = load i32, ptr %3, align 8, !tbaa !20
  %5 = zext i32 %4 to i64
  %.idx = shl nuw nsw i64 %5, 2
  %6 = getelementptr inbounds nuw i8, ptr %0, i64 %.idx
  %.ptr12 = getelementptr inbounds nuw i8, ptr %6, i64 64
  %.not10 = icmp eq i32 %4, 0
  br i1 %.not10, label %._crit_edge, label %.lr.ph.preheader

.lr.ph.preheader:                                 ; preds = %2
  %.ptr = getelementptr inbounds nuw i8, ptr %0, i64 64
  br label %.lr.ph

._crit_edge:                                      ; preds = %_ZN3satlsERSoNS_7literalE.exit, %2
  %7 = tail call noundef nonnull align 8 dereferenceable(8) ptr @_ZSt16__ostream_insertIcSt11char_traitsIcEERSt13basic_ostreamIT_T0_ES6_PKS3_l(ptr noundef nonnull align 8 dereferenceable(8) %1, ptr noundef nonnull @.str.1, i64 noundef 4)
  %8 = getelementptr inbounds nuw i8, ptr %0, i64 60
  %9 = load i32, ptr %8, align 4, !tbaa !25
  %10 = zext i32 %9 to i64
  %11 = tail call noundef nonnull align 8 dereferenceable(8) ptr @_ZNSo9_M_insertImEERSoT_(ptr noundef nonnull align 8 dereferenceable(8) %1, i64 noundef %10)
  ret ptr %11

.lr.ph:                                           ; preds = %.lr.ph.preheader, %_ZN3satlsERSoNS_7literalE.exit
  %.011 = phi ptr [ %24, %_ZN3satlsERSoNS_7literalE.exit ], [ %.ptr, %.lr.ph.preheader ]
  %.sroa.01.0.copyload = load i32, ptr %.011, align 4, !tbaa !9
  %12 = icmp eq i32 %.sroa.01.0.copyload, -2
  br i1 %12, label %13, label %15

13:                                               ; preds = %.lr.ph
  %14 = tail call noundef nonnull align 8 dereferenceable(8) ptr @_ZSt16__ostream_insertIcSt11char_traitsIcEERSt13basic_ostreamIT_T0_ES6_PKS3_l(ptr noundef nonnull align 8 dereferenceable(8) %1, ptr noundef nonnull @.str.13, i64 noundef 4)
  br label %_ZN3satlsERSoNS_7literalE.exit

15:                                               ; preds = %.lr.ph
  %16 = and i32 %.sroa.01.0.copyload, 1
  %.not.not.i = icmp eq i32 %16, 0
  %17 = select i1 %.not.not.i, ptr @.str.15, ptr @.str.14
  %18 = zext nneg i32 %16 to i64
  %19 = tail call noundef nonnull align 8 dereferenceable(8) ptr @_ZSt16__ostream_insertIcSt11char_traitsIcEERSt13basic_ostreamIT_T0_ES6_PKS3_l(ptr noundef nonnull align 8 dereferenceable(8) %1, ptr noundef nonnull %17, i64 noundef %18)
  %20 = lshr i32 %.sroa.01.0.copyload, 1
  %21 = zext nneg i32 %20 to i64
  %22 = tail call noundef nonnull align 8 dereferenceable(8) ptr @_ZNSo9_M_insertImEERSoT_(ptr noundef nonnull align 8 dereferenceable(8) %1, i64 noundef %21)
  br label %_ZN3satlsERSoNS_7literalE.exit

_ZN3satlsERSoNS_7literalE.exit:                   ; preds = %13, %15
  %23 = tail call noundef nonnull align 8 dereferenceable(8) ptr @_ZSt16__ostream_insertIcSt11char_traitsIcEERSt13basic_ostreamIT_T0_ES6_PKS3_l(ptr noundef nonnull align 8 dereferenceable(8) %1, ptr noundef nonnull @.str, i64 noundef 1)
  %24 = getelementptr inbounds nuw i8, ptr %.011, i64 4
  %.not = icmp eq ptr %24, %.ptr12
  br i1 %.not, label %._crit_edge, label %.lr.ph
}